; Function Attrs: nounwind uwtable
define dso_local { ptr, ptr } @gen_module(ptr %0, ptr readnone captures(none) %1) local_unnamed_addr #1 {
  %3 = tail call ptr @jv_mem_alloc(i64 noundef 160) #17
  %4 = getelementptr inbounds nuw i8, ptr %3, i64 16
  tail call void @llvm.memset.p0.i64(ptr noundef nonnull align 8 dereferenceable(16) %3, i8 0, i64 16, i1 false)
  store i32 38, ptr %4, align 8, !tbaa !25
  %5 = getelementptr inbounds nuw i8, ptr %3, i64 152
  store i32 -1, ptr %5, align 8, !tbaa !26
  %6 = getelementptr inbounds nuw i8, ptr %3, i64 80
  %7 = getelementptr inbounds nuw i8, ptr %3, i64 104
  tail call void @llvm.memset.p0.i64(ptr noundef nonnull align 8 dereferenceable(24) %6, i8 0, i64 24, i1 false)
  store i32 -1, ptr %7, align 8, !tbaa !27
  %8 = getelementptr inbounds nuw i8, ptr %3, i64 108
  store i32 -1, ptr %8, align 4, !tbaa !28
  %9 = getelementptr inbounds nuw i8, ptr %3, i64 112
  %10 = getelementptr inbounds nuw i8, ptr %3, i64 72
  tail call void @llvm.memset.p0.i64(ptr noundef nonnull align 8 dereferenceable(32) %9, i8 0, i64 32, i1 false)
  store i64 -1, ptr %10, align 8
  %11 = getelementptr inbounds nuw i8, ptr %3, i64 64
  store ptr null, ptr %11, align 8, !tbaa !21
  %12 = getelementptr inbounds nuw i8, ptr %3, i64 40
  %13 = getelementptr inbounds nuw i8, ptr %0, i64 40
  %14 = load i64, ptr %13, align 8
  %15 = getelementptr inbounds nuw i8, ptr %0, i64 48
  %16 = load ptr, ptr %15, align 8
  %17 = tail call { i64, ptr } @jv_copy(i64 %14, ptr %16) #17
  %18 = extractvalue { i64, ptr } %17, 0
  %19 = extractvalue { i64, ptr } %17, 1
  store i64 %18, ptr %12, align 8
  %.sroa.45.0..sroa_idx = getelementptr inbounds nuw i8, ptr %3, i64 48
  store ptr %19, ptr %.sroa.45.0..sroa_idx, align 8, !tbaa !29
  %20 = tail call i32 @jv_get_kind(i64 %18, ptr %19) #17
  %.not = icmp eq i32 %20, 7
  br i1 %.not, label %.lr.ph.i.preheader, label %21

21:                                               ; preds = %2
  %22 = tail call { i64, ptr } @jv_object() #17
  %23 = extractvalue { i64, ptr } %22, 0
  %24 = extractvalue { i64, ptr } %22, 1
  %25 = tail call { i64, ptr } @jv_string(ptr noundef nonnull @.str.2) #17
  %26 = extractvalue { i64, ptr } %25, 0
  %27 = extractvalue { i64, ptr } %25, 1
  %28 = load i64, ptr %12, align 8
  %29 = load ptr, ptr %.sroa.45.0..sroa_idx, align 8
  %30 = tail call { i64, ptr } @jv_object_set(i64 %23, ptr %24, i64 %26, ptr %27, i64 %28, ptr %29) #17
  %31 = extractvalue { i64, ptr } %30, 0
  %32 = extractvalue { i64, ptr } %30, 1
  store i64 %31, ptr %12, align 8
  store ptr %32, ptr %.sroa.45.0..sroa_idx, align 8, !tbaa !29
  br label %.lr.ph.i.preheader

.lr.ph.i.preheader:                               ; preds = %21, %2
  br label %.lr.ph.i

.lr.ph.i:                                         ; preds = %.lr.ph.i.preheader, %.lr.ph.i
  %.05.i = phi ptr [ %33, %.lr.ph.i ], [ %0, %.lr.ph.i.preheader ]
  %33 = load ptr, ptr %.05.i, align 8, !tbaa !22
  tail call fastcc void @inst_free(ptr noundef nonnull %.05.i)
  %.not.i = icmp eq ptr %33, null
  br i1 %.not.i, label %block_free.exit, label %.lr.ph.i, !llvm.loop !35

block_free.exit:                                  ; preds = %.lr.ph.i
  %.fca.0.insert.i = insertvalue { ptr, ptr } poison, ptr %3, 0
  %.fca.1.insert.i = insertvalue { ptr, ptr } %.fca.0.insert.i, ptr %3, 1
  ret { ptr, ptr } %.fca.1.insert.i
}